target datalayout = "e-m:e-p270:32:32-p271:32:32-p272:64:64-i64:64-i128:128-f80:128-n8:16:32:64-S128"
target triple = "x86_64-pc-linux-gnu"

%struct._zval_struct = type { %union._zend_value, %union.anon, %union.anon.2 }
%union._zend_value = type { i64 }
%union.anon = type { i32 }
%union.anon.2 = type { i32 }
%union._zend_function = type { %struct._zend_op_array }
%struct._zend_op_array = type { i8, [3 x i8], i32, ptr, ptr, ptr, i32, i32, ptr, ptr, ptr, ptr, i32, ptr, i32, i32, i32, ptr, ptr, ptr, ptr, ptr, i32, i32, ptr, ptr, ptr, i32, i32, i32, i32, ptr, ptr, [6 x ptr] }
%struct._zend_refcounted_h = type { i32, %union.anon.4 }
%union.anon.4 = type { i32 }
%struct._zend_fcall_info_cache = type { ptr, ptr, ptr, ptr, ptr }
%struct._zend_execute_data = type { ptr, ptr, ptr, ptr, %struct._zval_struct, ptr, ptr, ptr, ptr }
%struct._zend_internal_function = type { i8, [3 x i8], i32, ptr, ptr, ptr, i32, i32, ptr, ptr, ptr, ptr, i32, ptr, ptr, ptr, ptr, [6 x ptr] }
%struct._zend_closure = type { %struct._zend_object, %union._zend_function, %struct._zval_struct, ptr, ptr }
%struct._zend_object = type { %struct._zend_refcounted_h, i32, i32, ptr, ptr, ptr, [1 x %struct._zval_struct] }
%struct.anon.3 = type { i8, [3 x i8], i32, ptr, ptr, ptr, i32, i32, ptr, ptr, ptr, ptr, i32, ptr }
%struct._zend_string = type { %struct._zend_refcounted_h, i64, i64, [1 x i8] }
%struct.anon.0 = type { i8, i8, %union.anon.1 }
%union.anon.1 = type { i16 }

; Function Attrs: alwaysinline nounwind uwtable
define internal i32 @zend_gc_addref(ptr noundef %0) #6 {
  %2 = alloca ptr, align 8
  store ptr %0, ptr %2, align 8, !tbaa !84
  br label %3

3:                                                ; preds = %1
  br label %4

4:                                                ; preds = %3
  %5 = load ptr, ptr %2, align 8, !tbaa !84
  %6 = getelementptr inbounds nuw %struct._zend_refcounted_h, ptr %5, i32 0, i32 0
  %7 = load i32, ptr %6, align 4, !tbaa !86
  %8 = add i32 %7, 1
  store i32 %8, ptr %6, align 4, !tbaa !86
  ret i32 %8
}

; Function Attrs: alwaysinline nounwind uwtable
define internal i32 @zend_gc_delref(ptr noundef %0) #6 {
  %2 = alloca ptr, align 8
  store ptr %0, ptr %2, align 8, !tbaa !84
  %3 = load ptr, ptr %2, align 8, !tbaa !84
  %4 = getelementptr inbounds nuw %struct._zend_refcounted_h, ptr %3, i32 0, i32 0
  %5 = load i32, ptr %4, align 4, !tbaa !86
  %6 = icmp ugt i32 %5, 0
  call void @llvm.assume(i1 %6)
  br label %7

7:                                                ; preds = %1
  br label %8

8:                                                ; preds = %7
  %9 = load ptr, ptr %2, align 8, !tbaa !84
  %10 = getelementptr inbounds nuw %struct._zend_refcounted_h, ptr %9, i32 0, i32 0
  %11 = load i32, ptr %10, align 4, !tbaa !86
  %12 = add i32 %11, -1
  store i32 %12, ptr %10, align 4, !tbaa !86
  ret i32 %12
}

; Function Attrs: alwaysinline nounwind uwtable
define internal i32 @zval_gc_flags(i32 noundef %0) #6 {
  %2 = alloca i32, align 4
  store i32 %0, ptr %2, align 4, !tbaa !18
  %3 = load i32, ptr %2, align 4, !tbaa !18
  %4 = lshr i32 %3, 0
  %5 = and i32 %4, 1008
  ret i32 %5
}

; Function Attrs: alwaysinline nounwind uwtable
define internal i32 @zend_string_addref(ptr noundef %0) #6 {
  %2 = alloca i32, align 4
  %3 = alloca ptr, align 8
  store ptr %0, ptr %3, align 8, !tbaa !52
  %4 = load ptr, ptr %3, align 8, !tbaa !52
  %5 = getelementptr inbounds nuw %struct._zend_string, ptr %4, i32 0, i32 0
  %6 = getelementptr inbounds nuw %struct._zend_refcounted_h, ptr %5, i32 0, i32 1
  %7 = load i32, ptr %6, align 4, !tbaa !20
  %8 = call i32 @zval_gc_flags(i32 noundef %7)
  %9 = and i32 %8, 64
  %10 = icmp ne i32 %9, 0
  br i1 %10, label %15, label %11

11:                                               ; preds = %1
  %12 = load ptr, ptr %3, align 8, !tbaa !52
  %13 = getelementptr inbounds nuw %struct._zend_string, ptr %12, i32 0, i32 0
  %14 = call i32 @zend_gc_addref(ptr noundef %13)
  store i32 %14, ptr %2, align 4
  br label %16

15:                                               ; preds = %1
  store i32 1, ptr %2, align 4
  br label %16

16:                                               ; preds = %15, %11
  %17 = load i32, ptr %2, align 4
  ret i32 %17
}

; Function Attrs: alwaysinline nounwind uwtable
define internal zeroext i8 @zval_get_type(ptr noundef %0) #6 {
  %2 = alloca ptr, align 8
  store ptr %0, ptr %2, align 8, !tbaa !9
  %3 = load ptr, ptr %2, align 8, !tbaa !9
  %4 = getelementptr inbounds nuw %struct._zval_struct, ptr %3, i32 0, i32 1
  %5 = getelementptr inbounds nuw %struct.anon.0, ptr %4, i32 0, i32 0
  %6 = load i8, ptr %5, align 8, !tbaa !20
  ret i8 %6
}

; Function Attrs: alwaysinline nounwind uwtable
define internal void @zend_string_release_ex(ptr noundef %0, i1 noundef zeroext %1) #6 {
  %3 = alloca ptr, align 8
  %4 = alloca i8, align 1
  store ptr %0, ptr %3, align 8, !tbaa !52
  %5 = zext i1 %1 to i8
  store i8 %5, ptr %4, align 1, !tbaa !23
  %6 = load ptr, ptr %3, align 8, !tbaa !52
  %7 = getelementptr inbounds nuw %struct._zend_string, ptr %6, i32 0, i32 0
  %8 = getelementptr inbounds nuw %struct._zend_refcounted_h, ptr %7, i32 0, i32 1
  %9 = load i32, ptr %8, align 4, !tbaa !20
  %10 = call i32 @zval_gc_flags(i32 noundef %9)
  %11 = and i32 %10, 64
  %12 = icmp ne i32 %11, 0
  br i1 %12, label %27, label %13

13:                                               ; preds = %2
  %14 = load ptr, ptr %3, align 8, !tbaa !52
  %15 = getelementptr inbounds nuw %struct._zend_string, ptr %14, i32 0, i32 0
  %16 = call i32 @zend_gc_delref(ptr noundef %15)
  %17 = icmp eq i32 %16, 0
  br i1 %17, label %18, label %26

18:                                               ; preds = %13
  %19 = load i8, ptr %4, align 1, !tbaa !23, !range !54, !noundef !55
  %20 = trunc i8 %19 to i1
  br i1 %20, label %21, label %23

21:                                               ; preds = %18
  %22 = load ptr, ptr %3, align 8, !tbaa !52
  call void @free(ptr noundef %22) #11
  br label %25

23:                                               ; preds = %18
  %24 = load ptr, ptr %3, align 8, !tbaa !52
  call void @_efree(ptr noundef %24)
  br label %25

25:                                               ; preds = %23, %21
  br label %26

26:                                               ; preds = %25, %13
  br label %27

27:                                               ; preds = %26, %2
  ret void
}

; Function Attrs: alwaysinline nounwind uwtable
define internal void @zend_call_known_fcc(ptr noundef %0, ptr noundef %1, i32 noundef %2, ptr noundef %3, ptr noundef %4) #6 {
  %6 = alloca ptr, align 8
  %7 = alloca ptr, align 8
  %8 = alloca i32, align 4
  %9 = alloca ptr, align 8
  %10 = alloca ptr, align 8
  %11 = alloca ptr, align 8
  store ptr %0, ptr %6, align 8, !tbaa !48
  store ptr %1, ptr %7, align 8, !tbaa !9
  store i32 %2, ptr %8, align 4, !tbaa !18
  store ptr %3, ptr %9, align 8, !tbaa !9
  store ptr %4, ptr %10, align 8, !tbaa !26
  call void @llvm.lifetime.start.p0(i64 8, ptr %11) #11
  %12 = load ptr, ptr %6, align 8, !tbaa !48
  %13 = getelementptr inbounds nuw %struct._zend_fcall_info_cache, ptr %12, i32 0, i32 0
  %14 = load ptr, ptr %13, align 8, !tbaa !50
  store ptr %14, ptr %11, align 8, !tbaa !17
  %15 = load ptr, ptr %11, align 8, !tbaa !17
  %16 = getelementptr inbounds nuw %struct.anon.3, ptr %15, i32 0, i32 2
  %17 = load i32, ptr %16, align 4, !tbaa !20
  %18 = and i32 %17, 262144
  %19 = icmp ne i32 %18, 0
  %20 = xor i1 %19, true
  %21 = xor i1 %20, true
  %22 = zext i1 %21 to i32
  %23 = sext i32 %22 to i64
  %24 = call i64 @llvm.expect.i64(i64 %23, i64 0)
  %25 = icmp ne i64 %24, 0
  br i1 %25, label %26, label %36

26:                                               ; preds = %5
  %27 = call noalias ptr @_emalloc_256()
  store ptr %27, ptr %11, align 8, !tbaa !17
  %28 = load ptr, ptr %11, align 8, !tbaa !17
  %29 = load ptr, ptr %6, align 8, !tbaa !48
  %30 = getelementptr inbounds nuw %struct._zend_fcall_info_cache, ptr %29, i32 0, i32 0
  %31 = load ptr, ptr %30, align 8, !tbaa !50
  call void @llvm.memcpy.p0.p0.i64(ptr align 8 %28, ptr align 8 %31, i64 256, i1 false)
  %32 = load ptr, ptr %11, align 8, !tbaa !17
  %33 = getelementptr inbounds nuw %struct._zend_op_array, ptr %32, i32 0, i32 3
  %34 = load ptr, ptr %33, align 8, !tbaa !20
  %35 = call i32 @zend_string_addref(ptr noundef %34)
  br label %36

36:                                               ; preds = %26, %5
  %37 = load ptr, ptr %11, align 8, !tbaa !17
  %38 = load ptr, ptr %6, align 8, !tbaa !48
  %39 = getelementptr inbounds nuw %struct._zend_fcall_info_cache, ptr %38, i32 0, i32 3
  %40 = load ptr, ptr %39, align 8, !tbaa !51
  %41 = load ptr, ptr %6, align 8, !tbaa !48
  %42 = getelementptr inbounds nuw %struct._zend_fcall_info_cache, ptr %41, i32 0, i32 2
  %43 = load ptr, ptr %42, align 8, !tbaa !32
  %44 = load ptr, ptr %7, align 8, !tbaa !9
  %45 = load i32, ptr %8, align 4, !tbaa !18
  %46 = load ptr, ptr %9, align 8, !tbaa !9
  %47 = load ptr, ptr %10, align 8, !tbaa !26
  call void @zend_call_known_function(ptr noundef %37, ptr noundef %40, ptr noundef %43, ptr noundef %44, i32 noundef %45, ptr noundef %46, ptr noundef %47)
  call void @llvm.lifetime.end.p0(i64 8, ptr %11) #11
  ret void
}

; Function Attrs: nounwind uwtable
define internal i32 @zend_closure_get_closure(ptr noundef %0, ptr noundef %1, ptr noundef %2, ptr noundef %3, i1 noundef zeroext %4) #0 {
  %6 = alloca ptr, align 8
  %7 = alloca ptr, align 8
  %8 = alloca ptr, align 8
  %9 = alloca ptr, align 8
  %10 = alloca i8, align 1
  %11 = alloca ptr, align 8
  store ptr %0, ptr %6, align 8, !tbaa !33
  store ptr %1, ptr %7, align 8, !tbaa !34
  store ptr %2, ptr %8, align 8, !tbaa !36
  store ptr %3, ptr %9, align 8, !tbaa !38
  %12 = zext i1 %4 to i8
  store i8 %12, ptr %10, align 1, !tbaa !23
  call void @llvm.lifetime.start.p0(i64 8, ptr %11) #11
  %13 = load ptr, ptr %6, align 8, !tbaa !33
  store ptr %13, ptr %11, align 8, !tbaa !40
  %14 = load ptr, ptr %11, align 8, !tbaa !40
  %15 = getelementptr inbounds nuw %struct._zend_closure, ptr %14, i32 0, i32 1
  %16 = load ptr, ptr %8, align 8, !tbaa !36
  store ptr %15, ptr %16, align 8, !tbaa !17
  %17 = load ptr, ptr %11, align 8, !tbaa !40
  %18 = getelementptr inbounds nuw %struct._zend_closure, ptr %17, i32 0, i32 3
  %19 = load ptr, ptr %18, align 8, !tbaa !42
  %20 = load ptr, ptr %7, align 8, !tbaa !34
  store ptr %19, ptr %20, align 8, !tbaa !47
  %21 = load ptr, ptr %11, align 8, !tbaa !40
  %22 = getelementptr inbounds nuw %struct._zend_closure, ptr %21, i32 0, i32 2
  %23 = call zeroext i8 @zval_get_type(ptr noundef %22)
  %24 = zext i8 %23 to i32
  %25 = icmp ne i32 %24, 0
  br i1 %25, label %26, label %32

26:                                               ; preds = %5
  %27 = load ptr, ptr %11, align 8, !tbaa !40
  %28 = getelementptr inbounds nuw %struct._zend_closure, ptr %27, i32 0, i32 2
  %29 = getelementptr inbounds nuw %struct._zval_struct, ptr %28, i32 0, i32 0
  %30 = load ptr, ptr %29, align 8, !tbaa !20
  %31 = load ptr, ptr %9, align 8, !tbaa !38
  store ptr %30, ptr %31, align 8, !tbaa !33
  br label %34

32:                                               ; preds = %5
  %33 = load ptr, ptr %9, align 8, !tbaa !38
  store ptr null, ptr %33, align 8, !tbaa !33
  br label %34

34:                                               ; preds = %32, %26
  call void @llvm.lifetime.end.p0(i64 8, ptr %11) #11
  ret i32 0
}

; Function Attrs: nounwind uwtable
define hidden void @zim_Closure___invoke(ptr noundef %0, ptr noundef %1) #0 {
  %3 = alloca ptr, align 8
  %4 = alloca ptr, align 8
  %5 = alloca ptr, align 8
  %6 = alloca ptr, align 8
  %7 = alloca i32, align 4
  %8 = alloca ptr, align 8
  %9 = alloca i32, align 4
  %10 = alloca i32, align 4
  %11 = alloca i32, align 4
  %12 = alloca i32, align 4
  %13 = alloca i32, align 4
  %14 = alloca ptr, align 8
  %15 = alloca ptr, align 8
  %16 = alloca i32, align 4
  %17 = alloca ptr, align 8
  %18 = alloca i8, align 1
  %19 = alloca i8, align 1
  %20 = alloca i32, align 4
  %21 = alloca i32, align 4
  %22 = alloca i32, align 4
  %23 = alloca %struct._zend_fcall_info_cache, align 8
  store ptr %0, ptr %3, align 8, !tbaa !4
  store ptr %1, ptr %4, align 8, !tbaa !9
  call void @llvm.lifetime.start.p0(i64 8, ptr %5) #11
  %24 = load ptr, ptr %3, align 8, !tbaa !4
  %25 = getelementptr inbounds nuw %struct._zend_execute_data, ptr %24, i32 0, i32 3
  %26 = load ptr, ptr %25, align 8, !tbaa !11
  store ptr %26, ptr %5, align 8, !tbaa !17
  call void @llvm.lifetime.start.p0(i64 8, ptr %6) #11
  call void @llvm.lifetime.start.p0(i64 4, ptr %7) #11
  call void @llvm.lifetime.start.p0(i64 8, ptr %8) #11
  br label %27

27:                                               ; preds = %2
  call void @llvm.lifetime.start.p0(i64 4, ptr %9) #11
  store i32 0, ptr %9, align 4, !tbaa !18
  call void @llvm.lifetime.start.p0(i64 4, ptr %10) #11
  store i32 0, ptr %10, align 4, !tbaa !18
  call void @llvm.lifetime.start.p0(i64 4, ptr %11) #11
  store i32 -1, ptr %11, align 4, !tbaa !18
  call void @llvm.lifetime.start.p0(i64 4, ptr %12) #11
  %28 = load ptr, ptr %3, align 8, !tbaa !4
  %29 = getelementptr inbounds nuw %struct._zend_execute_data, ptr %28, i32 0, i32 4
  %30 = getelementptr inbounds nuw %struct._zval_struct, ptr %29, i32 0, i32 2
  %31 = load i32, ptr %30, align 4, !tbaa !20
  store i32 %31, ptr %12, align 4, !tbaa !18
  call void @llvm.lifetime.start.p0(i64 4, ptr %13) #11
  store i32 0, ptr %13, align 4, !tbaa !18
  call void @llvm.lifetime.start.p0(i64 8, ptr %14) #11
  call void @llvm.lifetime.start.p0(i64 8, ptr %15) #11
  store ptr null, ptr %15, align 8, !tbaa !9
  call void @llvm.lifetime.start.p0(i64 4, ptr %16) #11
  store i32 0, ptr %16, align 4, !tbaa !18
  call void @llvm.lifetime.start.p0(i64 8, ptr %17) #11
  store ptr null, ptr %17, align 8, !tbaa !21
  call void @llvm.lifetime.start.p0(i64 1, ptr %18) #11
  store i8 0, ptr %18, align 1, !tbaa !23
  call void @llvm.lifetime.start.p0(i64 1, ptr %19) #11
  store i8 0, ptr %19, align 1, !tbaa !23
  call void @llvm.lifetime.start.p0(i64 4, ptr %20) #11
  store i32 0, ptr %20, align 4, !tbaa !18
  br label %32

32:                                               ; preds = %27
  %33 = load i32, ptr %12, align 4, !tbaa !18
  %34 = load i32, ptr %10, align 4, !tbaa !18
  %35 = icmp ult i32 %33, %34
  %36 = xor i1 %35, true
  %37 = xor i1 %36, true
  %38 = zext i1 %37 to i32
  %39 = sext i32 %38 to i64
  %40 = call i64 @llvm.expect.i64(i64 %39, i64 0)
  %41 = icmp ne i64 %40, 0
  br i1 %41, label %52, label %42

42:                                               ; preds = %32
  %43 = load i32, ptr %12, align 4, !tbaa !18
  %44 = load i32, ptr %11, align 4, !tbaa !18
  %45 = icmp ugt i32 %43, %44
  %46 = xor i1 %45, true
  %47 = xor i1 %46, true
  %48 = zext i1 %47 to i32
  %49 = sext i32 %48 to i64
  %50 = call i64 @llvm.expect.i64(i64 %49, i64 0)
  %51 = icmp ne i64 %50, 0
  br i1 %51, label %52, label %55

52:                                               ; preds = %42, %32
  %53 = load i32, ptr %10, align 4, !tbaa !18
  %54 = load i32, ptr %11, align 4, !tbaa !18
  call void @zend_wrong_parameters_count_error(i32 noundef %53, i32 noundef %54)
  store i32 1, ptr %20, align 4, !tbaa !18
  br label %99

55:                                               ; preds = %42
  %56 = load ptr, ptr %3, align 8, !tbaa !4
  %57 = getelementptr inbounds %struct._zval_struct, ptr %56, i64 4
  store ptr %57, ptr %14, align 8, !tbaa !9
  br label %58

58:                                               ; preds = %55
  call void @llvm.lifetime.start.p0(i64 4, ptr %21) #11
  %59 = load i32, ptr %12, align 4, !tbaa !18
  %60 = load i32, ptr %13, align 4, !tbaa !18
  %61 = sub i32 %59, %60
  store i32 %61, ptr %21, align 4, !tbaa !18
  %62 = load i32, ptr %21, align 4, !tbaa !18
  %63 = icmp ugt i32 %62, 0
  %64 = xor i1 %63, true
  %65 = xor i1 %64, true
  %66 = zext i1 %65 to i32
  %67 = sext i32 %66 to i64
  %68 = call i64 @llvm.expect.i64(i64 %67, i64 1)
  %69 = icmp ne i64 %68, 0
  br i1 %69, label %70, label %74

70:                                               ; preds = %58
  %71 = load ptr, ptr %14, align 8, !tbaa !9
  %72 = getelementptr inbounds %struct._zval_struct, ptr %71, i64 1
  store ptr %72, ptr %6, align 8, !tbaa !9
  %73 = load i32, ptr %21, align 4, !tbaa !18
  store i32 %73, ptr %7, align 4, !tbaa !18
  br label %75

74:                                               ; preds = %58
  store ptr null, ptr %6, align 8, !tbaa !9
  store i32 0, ptr %7, align 4, !tbaa !18
  br label %75

75:                                               ; preds = %74, %70
  %76 = load ptr, ptr %3, align 8, !tbaa !4
  %77 = getelementptr inbounds nuw %struct._zend_execute_data, ptr %76, i32 0, i32 4
  %78 = getelementptr inbounds nuw %struct._zval_struct, ptr %77, i32 0, i32 1
  %79 = load i32, ptr %78, align 8, !tbaa !20
  %80 = and i32 %79, 134217728
  %81 = icmp ne i32 %80, 0
  br i1 %81, label %82, label %86

82:                                               ; preds = %75
  %83 = load ptr, ptr %3, align 8, !tbaa !4
  %84 = getelementptr inbounds nuw %struct._zend_execute_data, ptr %83, i32 0, i32 8
  %85 = load ptr, ptr %84, align 8, !tbaa !25
  store ptr %85, ptr %8, align 8, !tbaa !26
  br label %87

86:                                               ; preds = %75
  store ptr null, ptr %8, align 8, !tbaa !26
  br label %87

87:                                               ; preds = %86, %82
  call void @llvm.lifetime.end.p0(i64 4, ptr %21) #11
  br label %88

88:                                               ; preds = %87
  br label %89

89:                                               ; preds = %88
  %90 = load i32, ptr %13, align 4, !tbaa !18
  %91 = load i32, ptr %11, align 4, !tbaa !18
  %92 = icmp eq i32 %90, %91
  br i1 %92, label %96, label %93

93:                                               ; preds = %89
  %94 = load i32, ptr %11, align 4, !tbaa !18
  %95 = icmp eq i32 %94, -1
  br label %96

96:                                               ; preds = %93, %89
  %97 = phi i1 [ true, %89 ], [ %95, %93 ]
  call void @llvm.assume(i1 %97)
  br label %98

98:                                               ; preds = %96
  br label %99

99:                                               ; preds = %98, %52
  %100 = load i32, ptr %20, align 4, !tbaa !18
  %101 = icmp ne i32 %100, 0
  %102 = xor i1 %101, true
  %103 = xor i1 %102, true
  %104 = zext i1 %103 to i32
  %105 = sext i32 %104 to i64
  %106 = call i64 @llvm.expect.i64(i64 %105, i64 0)
  %107 = icmp ne i64 %106, 0
  br i1 %107, label %108, label %114

108:                                              ; preds = %99
  %109 = load i32, ptr %20, align 4, !tbaa !18
  %110 = load i32, ptr %13, align 4, !tbaa !18
  %111 = load ptr, ptr %17, align 8, !tbaa !21
  %112 = load i32, ptr %16, align 4, !tbaa !18
  %113 = load ptr, ptr %15, align 8, !tbaa !9
  call void @zend_wrong_parameter_error(i32 noundef %109, i32 noundef %110, ptr noundef %111, i32 noundef %112, ptr noundef %113)
  store i32 1, ptr %22, align 4
  br label %115

114:                                              ; preds = %99
  store i32 0, ptr %22, align 4
  br label %115

115:                                              ; preds = %114, %108
  call void @llvm.lifetime.end.p0(i64 4, ptr %20) #11
  call void @llvm.lifetime.end.p0(i64 1, ptr %19) #11
  call void @llvm.lifetime.end.p0(i64 1, ptr %18) #11
  call void @llvm.lifetime.end.p0(i64 8, ptr %17) #11
  call void @llvm.lifetime.end.p0(i64 4, ptr %16) #11
  call void @llvm.lifetime.end.p0(i64 8, ptr %15) #11
  call void @llvm.lifetime.end.p0(i64 8, ptr %14) #11
  call void @llvm.lifetime.end.p0(i64 4, ptr %13) #11
  call void @llvm.lifetime.end.p0(i64 4, ptr %12) #11
  call void @llvm.lifetime.end.p0(i64 4, ptr %11) #11
  call void @llvm.lifetime.end.p0(i64 4, ptr %10) #11
  call void @llvm.lifetime.end.p0(i64 4, ptr %9) #11
  %116 = load i32, ptr %22, align 4
  switch i32 %116, label %146 [
    i32 0, label %117
  ]

117:                                              ; preds = %115
  br label %118

118:                                              ; preds = %117
  br label %119

119:                                              ; preds = %118
  call void @llvm.lifetime.start.p0(i64 40, ptr %23) #11
  call void @llvm.memset.p0.i64(ptr align 8 %23, i8 0, i64 40, i1 false)
  %120 = getelementptr inbounds nuw %struct._zend_fcall_info_cache, ptr %23, i32 0, i32 4
  %121 = load ptr, ptr %3, align 8, !tbaa !4
  %122 = getelementptr inbounds nuw %struct._zend_execute_data, ptr %121, i32 0, i32 4
  %123 = getelementptr inbounds nuw %struct._zval_struct, ptr %122, i32 0, i32 0
  %124 = load ptr, ptr %123, align 8, !tbaa !20
  store ptr %124, ptr %120, align 8, !tbaa !27
  %125 = load ptr, ptr %3, align 8, !tbaa !4
  %126 = getelementptr inbounds nuw %struct._zend_execute_data, ptr %125, i32 0, i32 4
  %127 = getelementptr inbounds nuw %struct._zval_struct, ptr %126, i32 0, i32 0
  %128 = load ptr, ptr %127, align 8, !tbaa !20
  %129 = getelementptr inbounds nuw %struct._zend_fcall_info_cache, ptr %23, i32 0, i32 1
  %130 = getelementptr inbounds nuw %struct._zend_fcall_info_cache, ptr %23, i32 0, i32 0
  %131 = getelementptr inbounds nuw %struct._zend_fcall_info_cache, ptr %23, i32 0, i32 3
  %132 = call i32 @zend_closure_get_closure(ptr noundef %128, ptr noundef %129, ptr noundef %130, ptr noundef %131, i1 noundef zeroext false)
  %133 = getelementptr inbounds nuw %struct._zend_fcall_info_cache, ptr %23, i32 0, i32 1
  %134 = load ptr, ptr %133, align 8, !tbaa !31
  %135 = getelementptr inbounds nuw %struct._zend_fcall_info_cache, ptr %23, i32 0, i32 2
  store ptr %134, ptr %135, align 8, !tbaa !32
  %136 = load ptr, ptr %4, align 8, !tbaa !9
  %137 = load i32, ptr %7, align 4, !tbaa !18
  %138 = load ptr, ptr %6, align 8, !tbaa !9
  %139 = load ptr, ptr %8, align 8, !tbaa !26
  call void @zend_call_known_fcc(ptr noundef %23, ptr noundef %136, i32 noundef %137, ptr noundef %138, ptr noundef %139)
  %140 = load ptr, ptr %5, align 8, !tbaa !17
  %141 = getelementptr inbounds nuw %struct._zend_internal_function, ptr %140, i32 0, i32 3
  %142 = load ptr, ptr %141, align 8, !tbaa !20
  call void @zend_string_release_ex(ptr noundef %142, i1 noundef zeroext false)
  %143 = load ptr, ptr %5, align 8, !tbaa !17
  call void @_efree(ptr noundef %143)
  %144 = load ptr, ptr %3, align 8, !tbaa !4
  %145 = getelementptr inbounds nuw %struct._zend_execute_data, ptr %144, i32 0, i32 3
  store ptr null, ptr %145, align 8, !tbaa !11
  call void @llvm.lifetime.end.p0(i64 40, ptr %23) #11
  store i32 0, ptr %22, align 4
  br label %146

146:                                              ; preds = %119, %115
  call void @llvm.lifetime.end.p0(i64 8, ptr %8) #11
  call void @llvm.lifetime.end.p0(i64 4, ptr %7) #11
  call void @llvm.lifetime.end.p0(i64 8, ptr %6) #11
  call void @llvm.lifetime.end.p0(i64 8, ptr %5) #11
  %147 = load i32, ptr %22, align 4
  switch i32 %147, label %149 [
    i32 0, label %148
    i32 1, label %148
  ]

148:                                              ; preds = %146, %146
  ret void

149:                                              ; preds = %146
  unreachable
}