; Function Attrs: nounwind uwtable
define hidden void @zim_Closure___invoke(ptr noundef %0, ptr noundef %1) #0 {
  %3 = getelementptr inbounds nuw i8, ptr %0, i64 24
  %4 = load ptr, ptr %3, align 8, !tbaa !4
  %5 = getelementptr inbounds nuw i8, ptr %0, i64 32
  %6 = getelementptr inbounds nuw i8, ptr %0, i64 44
  %7 = load i32, ptr %6, align 4, !tbaa !15
  %.not = icmp eq i32 %7, 0
  %8 = getelementptr inbounds nuw i8, ptr %0, i64 80
  %.1 = select i1 %.not, ptr null, ptr %8, !prof !16
  %9 = getelementptr inbounds nuw i8, ptr %0, i64 40
  %10 = load i32, ptr %9, align 8, !tbaa !15
  %11 = and i32 %10, 134217728
  %.not41 = icmp eq i32 %11, 0
  br i1 %.not41, label %15, label %12

12:                                               ; preds = %2
  %13 = getelementptr inbounds nuw i8, ptr %0, i64 72
  %14 = load ptr, ptr %13, align 8, !tbaa !17
  br label %15

15:                                               ; preds = %2, %12
  %.139 = phi ptr [ %14, %12 ], [ null, %2 ]
  %16 = load ptr, ptr %5, align 8, !tbaa !15
  %17 = getelementptr inbounds nuw i8, ptr %16, i64 56
  %18 = getelementptr inbounds nuw i8, ptr %16, i64 328
  %19 = load ptr, ptr %18, align 8, !tbaa !18
  %20 = getelementptr inbounds nuw i8, ptr %16, i64 320
  %21 = load i8, ptr %20, align 8, !tbaa !15
  %.not.i45 = icmp eq i8 %21, 0
  br i1 %.not.i45, label %zend_closure_get_closure.exit, label %22

22:                                               ; preds = %15
  %23 = getelementptr inbounds nuw i8, ptr %16, i64 312
  %24 = load ptr, ptr %23, align 8, !tbaa !15
  br label %zend_closure_get_closure.exit

zend_closure_get_closure.exit:                    ; preds = %15, %22
  %storemerge.i = phi ptr [ %24, %22 ], [ null, %15 ]
  %25 = getelementptr inbounds nuw i8, ptr %16, i64 60
  %26 = load i32, ptr %25, align 4, !tbaa !15
  %27 = and i32 %26, 262144
  %.not.i = icmp eq i32 %27, 0
  br i1 %.not.i, label %zend_call_known_fcc.exit, label %28, !prof !25

28:                                               ; preds = %zend_closure_get_closure.exit
  %29 = tail call noalias ptr @_emalloc_256() #13
  tail call void @llvm.memcpy.p0.p0.i64(ptr noundef nonnull align 8 dereferenceable(256) %29, ptr noundef nonnull align 8 dereferenceable(256) %17, i64 256, i1 false)
  %30 = getelementptr inbounds nuw i8, ptr %29, i64 8
  %31 = load ptr, ptr %30, align 8, !tbaa !15
  %32 = getelementptr inbounds nuw i8, ptr %31, i64 4
  %33 = load i32, ptr %32, align 4, !tbaa !15
  %34 = and i32 %33, 64
  %.not.i43 = icmp eq i32 %34, 0
  br i1 %.not.i43, label %35, label %zend_call_known_fcc.exit

35:                                               ; preds = %28
  %36 = load i32, ptr %31, align 4, !tbaa !26
  %37 = add i32 %36, 1
  store i32 %37, ptr %31, align 4, !tbaa !26
  br label %zend_call_known_fcc.exit

zend_call_known_fcc.exit:                         ; preds = %35, %28, %zend_closure_get_closure.exit
  %.0.i = phi ptr [ %17, %zend_closure_get_closure.exit ], [ %29, %28 ], [ %29, %35 ]
  tail call void @zend_call_known_function(ptr noundef nonnull %.0.i, ptr noundef %storemerge.i, ptr noundef %19, ptr noundef %1, i32 noundef %7, ptr noundef %.1, ptr noundef %.139) #13
  %38 = getelementptr inbounds nuw i8, ptr %4, i64 8
  %39 = load ptr, ptr %38, align 8, !tbaa !15
  %40 = getelementptr inbounds nuw i8, ptr %39, i64 4
  %41 = load i32, ptr %40, align 4, !tbaa !15
  %42 = and i32 %41, 64
  %.not.i42 = icmp eq i32 %42, 0
  br i1 %.not.i42, label %43, label %zend_string_release_ex.exit

43:                                               ; preds = %zend_call_known_fcc.exit
  %44 = load i32, ptr %39, align 4, !tbaa !26
  %45 = icmp ne i32 %44, 0
  tail call void @llvm.assume(i1 %45)
  %46 = add i32 %44, -1
  store i32 %46, ptr %39, align 4, !tbaa !26
  %47 = icmp eq i32 %46, 0
  br i1 %47, label %48, label %zend_string_release_ex.exit

48:                                               ; preds = %43
  tail call void @_efree(ptr noundef nonnull %39) #13
  br label %zend_string_release_ex.exit

zend_string_release_ex.exit:                      ; preds = %zend_call_known_fcc.exit, %43, %48
  tail call void @_efree(ptr noundef nonnull %4) #13
  store ptr null, ptr %3, align 8, !tbaa !4
  ret void
}